target datalayout = "e-m:e-p270:32:32-p271:32:32-p272:64:64-i64:64-i128:128-f80:128-n8:16:32:64-S128"
target triple = "x86_64-pc-linux-gnu"

%class.ref_vector = type { %class.ref_vector_core }
%class.ref_vector_core = type { %class.ref_manager_wrapper, %class.ptr_vector }
%class.ref_manager_wrapper = type { ptr }
%class.ptr_vector = type { %class.vector }
%class.vector = type { ptr }
%class.obj_ref = type { ptr, ptr }
%"class.spacer::derivation" = type { ptr, ptr, %class.vector.97, i32, %class.obj_ref, %class.ref_vector }
%class.vector.97 = type { ptr }
%"class.spacer::derivation::premise" = type { ptr, i32, %class.obj_ref, i8, %class.ref_vector }

@_ZN6spacer10derivation7premiseC1ERNS_16pred_transformerEjP4exprbPK10ptr_vectorI3appE = hidden unnamed_addr alias void (ptr, ptr, i32, ptr, i1, ptr), ptr @_ZN6spacer10derivation7premiseC2ERNS_16pred_transformerEjP4exprbPK10ptr_vectorI3appE

; Function Attrs: inlinehint mustprogress nounwind uwtable
define linkonce_odr hidden void @_ZSt4swapIPP3appENSt9enable_ifIXsr6__and_ISt6__not_ISt15__is_tuple_likeIT_EESt21is_move_constructibleIS6_ESt18is_move_assignableIS6_EEE5valueEvE4typeERS6_SF_(ptr noundef nonnull align 8 dereferenceable(8) %0, ptr noundef nonnull align 8 dereferenceable(8) %1) #7 comdat {
  %3 = alloca ptr, align 8
  %4 = alloca ptr, align 8
  %5 = alloca ptr, align 8
  store ptr %0, ptr %3, align 8, !tbaa !1163
  store ptr %1, ptr %4, align 8, !tbaa !1163
  call void @llvm.lifetime.start.p0(i64 8, ptr %5) #3
  %6 = load ptr, ptr %3, align 8, !tbaa !1163
  %7 = load ptr, ptr %6, align 8, !tbaa !285
  store ptr %7, ptr %5, align 8, !tbaa !285
  %8 = load ptr, ptr %4, align 8, !tbaa !1163
  %9 = load ptr, ptr %8, align 8, !tbaa !285
  %10 = load ptr, ptr %3, align 8, !tbaa !1163
  store ptr %9, ptr %10, align 8, !tbaa !285
  %11 = load ptr, ptr %5, align 8, !tbaa !285
  %12 = load ptr, ptr %4, align 8, !tbaa !1163
  store ptr %11, ptr %12, align 8, !tbaa !285
  call void @llvm.lifetime.end.p0(i64 8, ptr %5) #3
  ret void
}

; Function Attrs: mustprogress nounwind uwtable
define linkonce_odr hidden void @_ZN6vectorIP3appLb0EjEC2EOS2_(ptr noundef nonnull align 8 dereferenceable(8) %0, ptr noundef nonnull align 8 dereferenceable(8) %1) unnamed_addr #5 comdat align 2 {
  %3 = alloca ptr, align 8
  %4 = alloca ptr, align 8
  store ptr %0, ptr %3, align 8, !tbaa !319
  store ptr %1, ptr %4, align 8, !tbaa !319
  %5 = load ptr, ptr %3, align 8
  %6 = getelementptr inbounds nuw %class.vector, ptr %5, i32 0, i32 0
  store ptr null, ptr %6, align 8, !tbaa !321
  %7 = getelementptr inbounds nuw %class.vector, ptr %5, i32 0, i32 0
  %8 = load ptr, ptr %4, align 8, !tbaa !319
  %9 = getelementptr inbounds nuw %class.vector, ptr %8, i32 0, i32 0
  call void @_ZSt4swapIPP3appENSt9enable_ifIXsr6__and_ISt6__not_ISt15__is_tuple_likeIT_EESt21is_move_constructibleIS6_ESt18is_move_assignableIS6_EEE5valueEvE4typeERS6_SF_(ptr noundef nonnull align 8 dereferenceable(8) %7, ptr noundef nonnull align 8 dereferenceable(8) %9) #3
  ret void
}

; Function Attrs: inlinehint mustprogress nounwind uwtable
define linkonce_odr hidden void @_ZN10ptr_vectorI3appEC2EOS1_(ptr noundef nonnull align 8 dereferenceable(8) %0, ptr noundef nonnull align 8 dereferenceable(8) %1) unnamed_addr #7 comdat align 2 {
  %3 = alloca ptr, align 8
  %4 = alloca ptr, align 8
  store ptr %0, ptr %3, align 8, !tbaa !215
  store ptr %1, ptr %4, align 8, !tbaa !215
  %5 = load ptr, ptr %3, align 8
  %6 = load ptr, ptr %4, align 8, !tbaa !215
  call void @_ZN6vectorIP3appLb0EjEC2EOS2_(ptr noundef nonnull align 8 dereferenceable(8) %5, ptr noundef nonnull align 8 dereferenceable(8) %6) #3
  ret void
}

; Function Attrs: mustprogress nounwind uwtable
define linkonce_odr hidden void @_ZN15ref_vector_coreI3app19ref_manager_wrapperIS0_11ast_managerEEC2EOS4_(ptr noundef nonnull align 8 dereferenceable(16) %0, ptr noundef nonnull align 8 dereferenceable(16) %1) unnamed_addr #5 comdat align 2 {
  %3 = alloca ptr, align 8
  %4 = alloca ptr, align 8
  store ptr %0, ptr %3, align 8, !tbaa !125
  store ptr %1, ptr %4, align 8, !tbaa !125
  %5 = load ptr, ptr %3, align 8
  %6 = load ptr, ptr %4, align 8, !tbaa !125
  call void @llvm.memcpy.p0.p0.i64(ptr align 8 %5, ptr align 8 %6, i64 8, i1 false), !tbaa.struct !1516
  %7 = getelementptr inbounds nuw %class.ref_vector_core, ptr %5, i32 0, i32 1
  %8 = load ptr, ptr %4, align 8, !tbaa !125
  %9 = getelementptr inbounds nuw %class.ref_vector_core, ptr %8, i32 0, i32 1
  call void @_ZN10ptr_vectorI3appEC2EOS1_(ptr noundef nonnull align 8 dereferenceable(8) %7, ptr noundef nonnull align 8 dereferenceable(8) %9) #3
  ret void
}

; Function Attrs: inlinehint mustprogress nounwind uwtable
define linkonce_odr hidden void @_ZSt4swapIP4exprENSt9enable_ifIXsr6__and_ISt6__not_ISt15__is_tuple_likeIT_EESt21is_move_constructibleIS5_ESt18is_move_assignableIS5_EEE5valueEvE4typeERS5_SE_(ptr noundef nonnull align 8 dereferenceable(8) %0, ptr noundef nonnull align 8 dereferenceable(8) %1) #7 comdat {
  %3 = alloca ptr, align 8
  %4 = alloca ptr, align 8
  %5 = alloca ptr, align 8
  store ptr %0, ptr %3, align 8, !tbaa !343
  store ptr %1, ptr %4, align 8, !tbaa !343
  call void @llvm.lifetime.start.p0(i64 8, ptr %5) #3
  %6 = load ptr, ptr %3, align 8, !tbaa !343
  %7 = load ptr, ptr %6, align 8, !tbaa !127
  store ptr %7, ptr %5, align 8, !tbaa !127
  %8 = load ptr, ptr %4, align 8, !tbaa !343
  %9 = load ptr, ptr %8, align 8, !tbaa !127
  %10 = load ptr, ptr %3, align 8, !tbaa !343
  store ptr %9, ptr %10, align 8, !tbaa !127
  %11 = load ptr, ptr %5, align 8, !tbaa !127
  %12 = load ptr, ptr %4, align 8, !tbaa !343
  store ptr %11, ptr %12, align 8, !tbaa !127
  call void @llvm.lifetime.end.p0(i64 8, ptr %5) #3
  ret void
}

; Function Attrs: mustprogress nounwind uwtable
define linkonce_odr hidden void @_ZN10ref_vectorI3app11ast_managerEC2EOS2_(ptr noundef nonnull align 8 dereferenceable(16) %0, ptr noundef nonnull align 8 dereferenceable(16) %1) unnamed_addr #5 comdat align 2 {
  %3 = alloca ptr, align 8
  %4 = alloca ptr, align 8
  store ptr %0, ptr %3, align 8, !tbaa !108
  store ptr %1, ptr %4, align 8, !tbaa !108
  %5 = load ptr, ptr %3, align 8
  %6 = load ptr, ptr %4, align 8, !tbaa !108
  call void @_ZN15ref_vector_coreI3app19ref_manager_wrapperIS0_11ast_managerEEC2EOS4_(ptr noundef nonnull align 8 dereferenceable(16) %5, ptr noundef nonnull align 8 dereferenceable(16) %6) #3
  ret void
}

; Function Attrs: mustprogress nounwind uwtable
define linkonce_odr hidden void @_ZN7obj_refI4expr11ast_managerEC2EOS2_(ptr noundef nonnull align 8 dereferenceable(16) %0, ptr noundef nonnull align 8 dereferenceable(16) %1) unnamed_addr #5 comdat align 2 {
  %3 = alloca ptr, align 8
  %4 = alloca ptr, align 8
  store ptr %0, ptr %3, align 8, !tbaa !104
  store ptr %1, ptr %4, align 8, !tbaa !104
  %5 = load ptr, ptr %3, align 8
  %6 = getelementptr inbounds nuw %class.obj_ref, ptr %5, i32 0, i32 0
  store ptr null, ptr %6, align 8, !tbaa !107
  %7 = getelementptr inbounds nuw %class.obj_ref, ptr %5, i32 0, i32 1
  %8 = load ptr, ptr %4, align 8, !tbaa !104
  %9 = getelementptr inbounds nuw %class.obj_ref, ptr %8, i32 0, i32 1
  %10 = load ptr, ptr %9, align 8, !tbaa !284
  store ptr %10, ptr %7, align 8, !tbaa !106
  %11 = getelementptr inbounds nuw %class.obj_ref, ptr %5, i32 0, i32 0
  %12 = load ptr, ptr %4, align 8, !tbaa !104
  %13 = getelementptr inbounds nuw %class.obj_ref, ptr %12, i32 0, i32 0
  call void @_ZSt4swapIP4exprENSt9enable_ifIXsr6__and_ISt6__not_ISt15__is_tuple_likeIT_EESt21is_move_constructibleIS5_ESt18is_move_assignableIS5_EEE5valueEvE4typeERS5_SE_(ptr noundef nonnull align 8 dereferenceable(8) %11, ptr noundef nonnull align 8 dereferenceable(8) %13) #3
  ret void
}

; Function Attrs: inlinehint mustprogress nounwind uwtable
define linkonce_odr hidden void @_ZN6spacer10derivation7premiseC2EOS1_(ptr noundef nonnull align 8 dereferenceable(56) %0, ptr noundef nonnull align 8 dereferenceable(56) %1) unnamed_addr #7 comdat align 2 {
  %3 = alloca ptr, align 8
  %4 = alloca ptr, align 8
  store ptr %0, ptr %3, align 8, !tbaa !217
  store ptr %1, ptr %4, align 8, !tbaa !217
  %5 = load ptr, ptr %3, align 8
  %6 = getelementptr inbounds nuw %"class.spacer::derivation::premise", ptr %5, i32 0, i32 0
  %7 = load ptr, ptr %4, align 8
  %8 = getelementptr inbounds nuw %"class.spacer::derivation::premise", ptr %7, i32 0, i32 0
  call void @llvm.memcpy.p0.p0.i64(ptr align 8 %6, ptr align 8 %8, i64 12, i1 false)
  %9 = getelementptr inbounds nuw %"class.spacer::derivation::premise", ptr %5, i32 0, i32 2
  %10 = load ptr, ptr %4, align 8, !tbaa !217
  %11 = getelementptr inbounds nuw %"class.spacer::derivation::premise", ptr %10, i32 0, i32 2
  call void @_ZN7obj_refI4expr11ast_managerEC2EOS2_(ptr noundef nonnull align 8 dereferenceable(16) %9, ptr noundef nonnull align 8 dereferenceable(16) %11) #3
  %12 = getelementptr inbounds nuw %"class.spacer::derivation::premise", ptr %5, i32 0, i32 3
  %13 = load ptr, ptr %4, align 8, !tbaa !217
  %14 = getelementptr inbounds nuw %"class.spacer::derivation::premise", ptr %13, i32 0, i32 3
  %15 = load i8, ptr %14, align 8, !tbaa !297, !range !40, !noundef !41
  %16 = trunc i8 %15 to i1
  %17 = zext i1 %16 to i8
  store i8 %17, ptr %12, align 8, !tbaa !297
  %18 = getelementptr inbounds nuw %"class.spacer::derivation::premise", ptr %5, i32 0, i32 4
  %19 = load ptr, ptr %4, align 8, !tbaa !217
  %20 = getelementptr inbounds nuw %"class.spacer::derivation::premise", ptr %19, i32 0, i32 4
  call void @_ZN10ref_vectorI3app11ast_managerEC2EOS2_(ptr noundef nonnull align 8 dereferenceable(16) %18, ptr noundef nonnull align 8 dereferenceable(16) %20) #3
  ret void
}

; Function Attrs: mustprogress uwtable
define linkonce_odr hidden noundef nonnull align 8 dereferenceable(8) ptr @_ZN6vectorIN6spacer10derivation7premiseELb1EjE9push_backEOS2_(ptr noundef nonnull align 8 dereferenceable(8) %0, ptr noundef nonnull align 8 dereferenceable(56) %1) #4 comdat align 2 {
  %3 = alloca ptr, align 8
  %4 = alloca ptr, align 8
  store ptr %0, ptr %3, align 8, !tbaa !211
  store ptr %1, ptr %4, align 8, !tbaa !217
  %5 = load ptr, ptr %3, align 8
  %6 = getelementptr inbounds nuw %class.vector.97, ptr %5, i32 0, i32 0
  %7 = load ptr, ptr %6, align 8, !tbaa !213
  %8 = icmp eq ptr %7, null
  br i1 %8, label %19, label %9

9:                                                ; preds = %2
  %10 = getelementptr inbounds nuw %class.vector.97, ptr %5, i32 0, i32 0
  %11 = load ptr, ptr %10, align 8, !tbaa !213
  %12 = getelementptr inbounds i32, ptr %11, i64 -1
  %13 = load i32, ptr %12, align 4, !tbaa !10
  %14 = getelementptr inbounds nuw %class.vector.97, ptr %5, i32 0, i32 0
  %15 = load ptr, ptr %14, align 8, !tbaa !213
  %16 = getelementptr inbounds i32, ptr %15, i64 -2
  %17 = load i32, ptr %16, align 4, !tbaa !10
  %18 = icmp eq i32 %13, %17
  br i1 %18, label %19, label %20

19:                                               ; preds = %9, %2
  call void @_ZN6vectorIN6spacer10derivation7premiseELb1EjE13expand_vectorEv(ptr noundef nonnull align 8 dereferenceable(8) %5)
  br label %20

20:                                               ; preds = %19, %9
  %21 = getelementptr inbounds nuw %class.vector.97, ptr %5, i32 0, i32 0
  %22 = load ptr, ptr %21, align 8, !tbaa !213
  %23 = getelementptr inbounds nuw %class.vector.97, ptr %5, i32 0, i32 0
  %24 = load ptr, ptr %23, align 8, !tbaa !213
  %25 = getelementptr inbounds i32, ptr %24, i64 -1
  %26 = load i32, ptr %25, align 4, !tbaa !10
  %27 = zext i32 %26 to i64
  %28 = getelementptr inbounds nuw %"class.spacer::derivation::premise", ptr %22, i64 %27
  %29 = load ptr, ptr %4, align 8, !tbaa !217
  call void @_ZN6spacer10derivation7premiseC2EOS1_(ptr noundef nonnull align 8 dereferenceable(56) %28, ptr noundef nonnull align 8 dereferenceable(56) %29) #3
  %30 = getelementptr inbounds nuw %class.vector.97, ptr %5, i32 0, i32 0
  %31 = load ptr, ptr %30, align 8, !tbaa !213
  %32 = getelementptr inbounds i32, ptr %31, i64 -1
  %33 = load i32, ptr %32, align 4, !tbaa !10
  %34 = add i32 %33, 1
  store i32 %34, ptr %32, align 4, !tbaa !10
  ret ptr %5
}

; Function Attrs: mustprogress uwtable
define hidden void @_ZN6spacer10derivation11add_premiseERNS_16pred_transformerEjP4exprbPK10ptr_vectorI3appE(ptr noundef nonnull align 8 dereferenceable(64) %0, ptr noundef nonnull align 8 dereferenceable(472) %1, i32 noundef %2, ptr noundef %3, i1 noundef zeroext %4, ptr noundef %5) #4 align 2 personality ptr @__gxx_personality_v0 {
  %7 = alloca ptr, align 8
  %8 = alloca ptr, align 8
  %9 = alloca i32, align 4
  %10 = alloca ptr, align 8
  %11 = alloca i8, align 1
  %12 = alloca ptr, align 8
  %13 = alloca %"class.spacer::derivation::premise", align 8
  %14 = alloca ptr, align 8
  %15 = alloca i32, align 4
  store ptr %0, ptr %7, align 8, !tbaa !112
  store ptr %1, ptr %8, align 8, !tbaa !8
  store i32 %2, ptr %9, align 4, !tbaa !10
  store ptr %3, ptr %10, align 8, !tbaa !127
  %16 = zext i1 %4 to i8
  store i8 %16, ptr %11, align 1, !tbaa !12
  store ptr %5, ptr %12, align 8, !tbaa !215
  %17 = load ptr, ptr %7, align 8
  %18 = getelementptr inbounds nuw %"class.spacer::derivation", ptr %17, i32 0, i32 2
  call void @llvm.lifetime.start.p0(i64 56, ptr %13) #3
  %19 = load ptr, ptr %8, align 8, !tbaa !8
  %20 = load i32, ptr %9, align 4, !tbaa !10
  %21 = load ptr, ptr %10, align 8, !tbaa !127
  %22 = load i8, ptr %11, align 1, !tbaa !12, !range !40, !noundef !41
  %23 = trunc i8 %22 to i1
  %24 = load ptr, ptr %12, align 8, !tbaa !215
  call void @_ZN6spacer10derivation7premiseC1ERNS_16pred_transformerEjP4exprbPK10ptr_vectorI3appE(ptr noundef nonnull align 8 dereferenceable(56) %13, ptr noundef nonnull align 8 dereferenceable(472) %19, i32 noundef %20, ptr noundef %21, i1 noundef zeroext %23, ptr noundef %24)
  %25 = invoke noundef nonnull align 8 dereferenceable(8) ptr @_ZN6vectorIN6spacer10derivation7premiseELb1EjE9push_backEOS2_(ptr noundef nonnull align 8 dereferenceable(8) %18, ptr noundef nonnull align 8 dereferenceable(56) %13)
          to label %26 unwind label %27

26:                                               ; preds = %6
  call void @_ZN6spacer10derivation7premiseD2Ev(ptr noundef nonnull align 8 dereferenceable(56) %13) #3
  call void @llvm.lifetime.end.p0(i64 56, ptr %13) #3
  ret void

27:                                               ; preds = %6
  %28 = landingpad { ptr, i32 }
          cleanup
  %29 = extractvalue { ptr, i32 } %28, 0
  store ptr %29, ptr %14, align 8
  %30 = extractvalue { ptr, i32 } %28, 1
  store i32 %30, ptr %15, align 4
  call void @_ZN6spacer10derivation7premiseD2Ev(ptr noundef nonnull align 8 dereferenceable(56) %13) #3
  call void @llvm.lifetime.end.p0(i64 56, ptr %13) #3
  br label %31

31:                                               ; preds = %27
  %32 = load ptr, ptr %14, align 8
  %33 = load i32, ptr %15, align 4
  %34 = insertvalue { ptr, i32 } poison, ptr %32, 0
  %35 = insertvalue { ptr, i32 } %34, i32 %33, 1
  resume { ptr, i32 } %35
}