; Function Attrs: mustprogress uwtable
define hidden void @_ZN6spacer10derivation11add_premiseERNS_16pred_transformerEjP4exprbPK10ptr_vectorI3appE(ptr noundef nonnull align 8 dereferenceable(64) %0, ptr noundef nonnull align 8 dereferenceable(472) %1, i32 noundef %2, ptr noundef %3, i1 noundef zeroext %4, ptr noundef captures(address_is_null) %5) local_unnamed_addr #3 align 2 personality ptr @__gxx_personality_v0 {
  %7 = alloca %"class.spacer::derivation::premise", align 8
  %8 = getelementptr inbounds nuw i8, ptr %0, i64 16
  call void @llvm.lifetime.start.p0(i64 56, ptr nonnull %7) #28
  call void @_ZN6spacer10derivation7premiseC2ERNS_16pred_transformerEjP4exprbPK10ptr_vectorI3appE(ptr noundef nonnull align 8 dereferenceable(56) %7, ptr noundef nonnull align 8 dereferenceable(472) %1, i32 noundef %2, ptr noundef %3, i1 noundef zeroext %4, ptr noundef %5)
  %9 = load ptr, ptr %8, align 8, !tbaa !176
  %10 = icmp eq ptr %9, null
  br i1 %10, label %17, label %11

11:                                               ; preds = %6
  %12 = getelementptr inbounds i8, ptr %9, i64 -4
  %13 = load i32, ptr %12, align 4, !tbaa !100
  %14 = getelementptr inbounds i8, ptr %9, i64 -8
  %15 = load i32, ptr %14, align 4, !tbaa !100
  %16 = icmp eq i32 %13, %15
  br i1 %16, label %17, label %_ZN6spacer10derivation7premiseD2Ev.exit

17:                                               ; preds = %11, %6
  invoke void @_ZN6vectorIN6spacer10derivation7premiseELb1EjE13expand_vectorEv(ptr noundef nonnull align 8 dereferenceable(8) %8)
          to label %.noexc unwind label %41

.noexc:                                           ; preds = %17
  %.pre.i = load ptr, ptr %8, align 8, !tbaa !176
  %.phi.trans.insert.i = getelementptr inbounds i8, ptr %.pre.i, i64 -4
  %.pre2.i = load i32, ptr %.phi.trans.insert.i, align 4, !tbaa !100
  br label %_ZN6spacer10derivation7premiseD2Ev.exit

_ZN6spacer10derivation7premiseD2Ev.exit:          ; preds = %11, %.noexc
  %18 = phi i32 [ %.pre2.i, %.noexc ], [ %13, %11 ]
  %19 = phi ptr [ %.pre.i, %.noexc ], [ %9, %11 ]
  %20 = zext i32 %18 to i64
  %21 = getelementptr inbounds nuw %"class.spacer::derivation::premise", ptr %19, i64 %20
  call void @llvm.memcpy.p0.p0.i64(ptr noundef nonnull align 8 dereferenceable(56) %21, ptr noundef nonnull align 8 dereferenceable(56) %7, i64 12, i1 false)
  %22 = getelementptr inbounds nuw i8, ptr %21, i64 16
  %23 = getelementptr inbounds nuw i8, ptr %7, i64 16
  store ptr null, ptr %22, align 8, !tbaa !93
  %24 = getelementptr inbounds nuw i8, ptr %21, i64 24
  %25 = getelementptr inbounds nuw i8, ptr %7, i64 24
  %26 = load ptr, ptr %25, align 8, !tbaa !102
  store ptr %26, ptr %24, align 8, !tbaa !94
  %27 = load ptr, ptr %23, align 8, !tbaa !182
  store ptr %27, ptr %22, align 8, !tbaa !182
  %28 = getelementptr inbounds nuw i8, ptr %21, i64 32
  %29 = getelementptr inbounds nuw i8, ptr %7, i64 32
  %30 = load i8, ptr %29, align 8, !tbaa !183, !range !156, !noundef !157
  store i8 %30, ptr %28, align 8, !tbaa !183
  %31 = getelementptr inbounds nuw i8, ptr %21, i64 40
  %32 = getelementptr inbounds nuw i8, ptr %7, i64 40
  %33 = load i64, ptr %32, align 8, !tbaa !94
  store i64 %33, ptr %31, align 8, !tbaa !94
  %34 = getelementptr inbounds nuw i8, ptr %21, i64 48
  %35 = getelementptr inbounds nuw i8, ptr %7, i64 48
  store ptr null, ptr %34, align 8, !tbaa !95
  %36 = load ptr, ptr %35, align 8, !tbaa !185
  store ptr %36, ptr %34, align 8, !tbaa !185
  %37 = load ptr, ptr %8, align 8, !tbaa !176
  %38 = getelementptr inbounds i8, ptr %37, i64 -4
  %39 = load i32, ptr %38, align 4, !tbaa !100
  %40 = add i32 %39, 1
  store i32 %40, ptr %38, align 4, !tbaa !100
  call void @llvm.lifetime.end.p0(i64 56, ptr nonnull %7) #28
  ret void

41:                                               ; preds = %17
  %42 = landingpad { ptr, i32 }
          cleanup
  call void @_ZN6spacer10derivation7premiseD2Ev(ptr noundef nonnull align 8 dereferenceable(56) %7) #28
  call void @llvm.lifetime.end.p0(i64 56, ptr nonnull %7) #28
  resume { ptr, i32 } %42
}